; Function Attrs: nounwind uwtable
define internal ptr @builtin_hash(ptr readnone captures(none) %0, ptr noundef %1) #0 {
  %3 = tail call i64 @PyObject_Hash(ptr noundef %1) #9
  %4 = icmp eq i64 %3, -1
  br i1 %4, label %7, label %5

5:                                                ; preds = %2
  %6 = tail call ptr @PyLong_FromSsize_t(i64 noundef %3) #9
  br label %7

7:                                                ; preds = %2, %5
  %.0 = phi ptr [ %6, %5 ], [ null, %2 ]
  ret ptr %.0
}